target datalayout = "e-m:e-p270:32:32-p271:32:32-p272:64:64-i64:64-i128:128-f80:128-n8:16:32:64-S128"
target triple = "x86_64-pc-linux-gnu"

; Function Attrs: nounwind uwtable
define dso_local i64 @rdbSaveLzfStringObject(ptr noundef %0, ptr noundef %1, i64 noundef %2) #0 {
  %4 = alloca i64, align 8
  %5 = alloca ptr, align 8
  %6 = alloca ptr, align 8
  %7 = alloca i64, align 8
  %8 = alloca i64, align 8
  %9 = alloca i64, align 8
  %10 = alloca ptr, align 8
  %11 = alloca i32, align 4
  %12 = alloca i64, align 8
  store ptr %0, ptr %5, align 8, !tbaa !53
  store ptr %1, ptr %6, align 8, !tbaa !9
  store i64 %2, ptr %7, align 8, !tbaa !56
  call void @llvm.lifetime.start.p0(i64 8, ptr %8) #15
  call void @llvm.lifetime.start.p0(i64 8, ptr %9) #15
  call void @llvm.lifetime.start.p0(i64 8, ptr %10) #15
  %13 = load i64, ptr %7, align 8, !tbaa !56
  %14 = icmp ule i64 %13, 4
  br i1 %14, label %15, label %16

15:                                               ; preds = %3
  store i64 0, ptr %4, align 8
  store i32 1, ptr %11, align 4
  br label %42

16:                                               ; preds = %3
  %17 = load i64, ptr %7, align 8, !tbaa !56
  %18 = sub i64 %17, 4
  store i64 %18, ptr %9, align 8, !tbaa !56
  %19 = load i64, ptr %9, align 8, !tbaa !56
  %20 = add i64 %19, 1
  %21 = call noalias ptr @zmalloc(i64 noundef %20) #17
  store ptr %21, ptr %10, align 8, !tbaa !55
  %22 = icmp eq ptr %21, null
  br i1 %22, label %23, label %24

23:                                               ; preds = %16
  store i64 0, ptr %4, align 8
  store i32 1, ptr %11, align 4
  br label %42

24:                                               ; preds = %16
  %25 = load ptr, ptr %6, align 8, !tbaa !9
  %26 = load i64, ptr %7, align 8, !tbaa !56
  %27 = load ptr, ptr %10, align 8, !tbaa !55
  %28 = load i64, ptr %9, align 8, !tbaa !56
  %29 = call i64 @lzf_compress(ptr noundef %25, i64 noundef %26, ptr noundef %27, i64 noundef %28)
  store i64 %29, ptr %8, align 8, !tbaa !56
  %30 = load i64, ptr %8, align 8, !tbaa !56
  %31 = icmp eq i64 %30, 0
  br i1 %31, label %32, label %34

32:                                               ; preds = %24
  %33 = load ptr, ptr %10, align 8, !tbaa !55
  call void @zfree(ptr noundef %33)
  store i64 0, ptr %4, align 8
  store i32 1, ptr %11, align 4
  br label %42

34:                                               ; preds = %24
  call void @llvm.lifetime.start.p0(i64 8, ptr %12) #15
  %35 = load ptr, ptr %5, align 8, !tbaa !53
  %36 = load ptr, ptr %10, align 8, !tbaa !55
  %37 = load i64, ptr %8, align 8, !tbaa !56
  %38 = load i64, ptr %7, align 8, !tbaa !56
  %39 = call i64 @rdbSaveLzfBlob(ptr noundef %35, ptr noundef %36, i64 noundef %37, i64 noundef %38)
  store i64 %39, ptr %12, align 8, !tbaa !56
  %40 = load ptr, ptr %10, align 8, !tbaa !55
  call void @zfree(ptr noundef %40)
  %41 = load i64, ptr %12, align 8, !tbaa !56
  store i64 %41, ptr %4, align 8
  store i32 1, ptr %11, align 4
  call void @llvm.lifetime.end.p0(i64 8, ptr %12) #15
  br label %42

42:                                               ; preds = %34, %32, %23, %15
  call void @llvm.lifetime.end.p0(i64 8, ptr %10) #15
  call void @llvm.lifetime.end.p0(i64 8, ptr %9) #15
  call void @llvm.lifetime.end.p0(i64 8, ptr %8) #15
  %43 = load i64, ptr %4, align 8
  ret i64 %43
}