; Function Attrs: nounwind uwtable
define dso_local i64 @rdbSaveLzfStringObject(ptr noundef %0, ptr noundef %1, i64 noundef %2) local_unnamed_addr #0 {
  %4 = icmp ult i64 %2, 5
  br i1 %4, label %15, label %5

5:                                                ; preds = %3
  %6 = add i64 %2, -3
  %7 = tail call noalias ptr @zmalloc(i64 noundef %6) #25
  %8 = icmp eq ptr %7, null
  br i1 %8, label %15, label %9

9:                                                ; preds = %5
  %10 = add i64 %2, -4
  %11 = tail call i64 @lzf_compress(ptr noundef %1, i64 noundef %2, ptr noundef nonnull %7, i64 noundef %10) #23
  %12 = icmp eq i64 %11, 0
  br i1 %12, label %.sink.split, label %13

13:                                               ; preds = %9
  %14 = tail call i64 @rdbSaveLzfBlob(ptr noundef %0, ptr noundef nonnull %7, i64 noundef %11, i64 noundef %2)
  br label %.sink.split

.sink.split:                                      ; preds = %9, %13
  %.0.ph = phi i64 [ %14, %13 ], [ 0, %9 ]
  tail call void @zfree(ptr noundef nonnull %7) #23
  br label %15

15:                                               ; preds = %.sink.split, %5, %3
  %.0 = phi i64 [ 0, %3 ], [ 0, %5 ], [ %.0.ph, %.sink.split ]
  ret i64 %.0
}